; ModuleID = 'bench/bullet3/original/btConvexCast.ll'
source_filename = "bench/bullet3/original/btConvexCast.ll"
target datalayout = "e-m:e-p270:32:32-p271:32:32-p272:64:64-i64:64-i128:128-f80:128-n8:16:32:64-S128"
target triple = "x86_64-pc-linux-gnu"

@_ZTV12btConvexCast = dso_local unnamed_addr constant { [5 x ptr] } { [5 x ptr] [ptr null, ptr @_ZTI12btConvexCast, ptr @_ZN12btConvexCastD2Ev, ptr @_ZN12btConvexCastD0Ev, ptr @__cxa_pure_virtual] }, align 8
@_ZTI12btConvexCast = dso_local constant { ptr, ptr } { ptr getelementptr inbounds (ptr, ptr @_ZTVN10__cxxabiv117__class_type_infoE, i64 2), ptr @_ZTS12btConvexCast }, align 8
@_ZTVN10__cxxabiv117__class_type_infoE = external global [0 x ptr]
@_ZTS12btConvexCast = dso_local constant [15 x i8] c"12btConvexCast\00", align 1
@llvm.global_ctors = appending global [0 x { i32, ptr, ptr }] zeroinitializer

@_ZN12btConvexCastD1Ev = dso_local unnamed_addr alias void (ptr), ptr @_ZN12btConvexCastD2Ev

; Function Attrs: mustprogress nofree norecurse nosync nounwind willreturn memory(none) uwtable
define dso_local void @_ZN12btConvexCastD2Ev(ptr nonnull readnone align 8 captures(none) %0) unnamed_addr #0 align 2 {
  ret void
}

; Function Attrs: cold mustprogress noreturn nounwind memory(inaccessiblemem: write) uwtable
define dso_local void @_ZN12btConvexCastD0Ev(ptr nonnull readnone align 8 captures(none) %0) unnamed_addr #1 align 2 {
  tail call void @llvm.trap() #3
  unreachable
}

; Function Attrs: cold noreturn nounwind memory(inaccessiblemem: write)
declare void @llvm.trap() #2

declare void @__cxa_pure_virtual() unnamed_addr


!llvm.module.flags = !{!0, !1, !2, !3}

!0 = !{i32 1, !"wchar_size", i32 4}
!1 = !{i32 8, !"PIC Level", i32 2}
!2 = !{i32 7, !"PIE Level", i32 2}
!3 = !{i32 7, !"uwtable", i32 2}
